target datalayout = "e-m:e-p270:32:32-p271:32:32-p272:64:64-i64:64-i128:128-f80:128-n8:16:32:64-S128"
target triple = "x86_64-pc-linux-gnu"

%"class.OpenSubdiv::v3_6_0::Vtr::internal::FVarRefinement" = type { ptr, ptr, ptr, ptr, ptr, %"class.std::vector" }
%"class.std::vector" = type { %"struct.std::_Vector_base" }
%"struct.std::_Vector_base" = type { %"struct.std::_Vector_base<unsigned short, std::allocator<unsigned short>>::_Vector_impl" }
%"struct.std::_Vector_base<unsigned short, std::allocator<unsigned short>>::_Vector_impl" = type { %"struct.std::_Vector_base<unsigned short, std::allocator<unsigned short>>::_Vector_impl_data" }
%"struct.std::_Vector_base<unsigned short, std::allocator<unsigned short>>::_Vector_impl_data" = type { ptr, ptr, ptr }
%"class.OpenSubdiv::v3_6_0::Vtr::internal::Refinement" = type { ptr, ptr, ptr, %"class.OpenSubdiv::v3_6_0::Sdc::Options", i32, i32, i8, i8, i32, i32, i32, i32, i32, i32, i32, i32, i32, i32, i32, i32, %"class.OpenSubdiv::v3_6_0::Vtr::Array", %"class.OpenSubdiv::v3_6_0::Vtr::Array", %"class.std::vector.0", %"class.std::vector.0", %"class.std::vector.0", %"class.std::vector.0", %"class.std::vector.0", %"class.std::vector.0", %"class.std::vector.0", %"class.std::vector.0", %"class.std::vector.0", %"class.std::vector.5", %"class.std::vector.5", %"class.std::vector.5", %"class.std::vector.10", %"class.std::vector.10", %"class.std::vector.10", %"class.std::vector.15" }
%"class.OpenSubdiv::v3_6_0::Sdc::Options" = type { i8, i8, i8, i8 }
%"class.OpenSubdiv::v3_6_0::Vtr::Array" = type { %"class.OpenSubdiv::v3_6_0::Vtr::ConstArray.base", [4 x i8] }
%"class.OpenSubdiv::v3_6_0::Vtr::ConstArray.base" = type <{ ptr, i32 }>
%"class.std::vector.0" = type { %"struct.std::_Vector_base.1" }
%"struct.std::_Vector_base.1" = type { %"struct.std::_Vector_base<int, std::allocator<int>>::_Vector_impl" }
%"struct.std::_Vector_base<int, std::allocator<int>>::_Vector_impl" = type { %"struct.std::_Vector_base<int, std::allocator<int>>::_Vector_impl_data" }
%"struct.std::_Vector_base<int, std::allocator<int>>::_Vector_impl_data" = type { ptr, ptr, ptr }
%"class.std::vector.5" = type { %"struct.std::_Vector_base.6" }
%"struct.std::_Vector_base.6" = type { %"struct.std::_Vector_base<OpenSubdiv::v3_6_0::Vtr::internal::Refinement::ChildTag, std::allocator<OpenSubdiv::v3_6_0::Vtr::internal::Refinement::ChildTag>>::_Vector_impl" }
%"struct.std::_Vector_base<OpenSubdiv::v3_6_0::Vtr::internal::Refinement::ChildTag, std::allocator<OpenSubdiv::v3_6_0::Vtr::internal::Refinement::ChildTag>>::_Vector_impl" = type { %"struct.std::_Vector_base<OpenSubdiv::v3_6_0::Vtr::internal::Refinement::ChildTag, std::allocator<OpenSubdiv::v3_6_0::Vtr::internal::Refinement::ChildTag>>::_Vector_impl_data" }
%"struct.std::_Vector_base<OpenSubdiv::v3_6_0::Vtr::internal::Refinement::ChildTag, std::allocator<OpenSubdiv::v3_6_0::Vtr::internal::Refinement::ChildTag>>::_Vector_impl_data" = type { ptr, ptr, ptr }
%"class.std::vector.10" = type { %"struct.std::_Vector_base.11" }
%"struct.std::_Vector_base.11" = type { %"struct.std::_Vector_base<OpenSubdiv::v3_6_0::Vtr::internal::Refinement::SparseTag, std::allocator<OpenSubdiv::v3_6_0::Vtr::internal::Refinement::SparseTag>>::_Vector_impl" }
%"struct.std::_Vector_base<OpenSubdiv::v3_6_0::Vtr::internal::Refinement::SparseTag, std::allocator<OpenSubdiv::v3_6_0::Vtr::internal::Refinement::SparseTag>>::_Vector_impl" = type { %"struct.std::_Vector_base<OpenSubdiv::v3_6_0::Vtr::internal::Refinement::SparseTag, std::allocator<OpenSubdiv::v3_6_0::Vtr::internal::Refinement::SparseTag>>::_Vector_impl_data" }
%"struct.std::_Vector_base<OpenSubdiv::v3_6_0::Vtr::internal::Refinement::SparseTag, std::allocator<OpenSubdiv::v3_6_0::Vtr::internal::Refinement::SparseTag>>::_Vector_impl_data" = type { ptr, ptr, ptr }
%"class.std::vector.15" = type { %"struct.std::_Vector_base.16" }
%"struct.std::_Vector_base.16" = type { %"struct.std::_Vector_base<OpenSubdiv::v3_6_0::Vtr::internal::FVarRefinement *, std::allocator<OpenSubdiv::v3_6_0::Vtr::internal::FVarRefinement *>>::_Vector_impl" }
%"struct.std::_Vector_base<OpenSubdiv::v3_6_0::Vtr::internal::FVarRefinement *, std::allocator<OpenSubdiv::v3_6_0::Vtr::internal::FVarRefinement *>>::_Vector_impl" = type { %"struct.std::_Vector_base<OpenSubdiv::v3_6_0::Vtr::internal::FVarRefinement *, std::allocator<OpenSubdiv::v3_6_0::Vtr::internal::FVarRefinement *>>::_Vector_impl_data" }
%"struct.std::_Vector_base<OpenSubdiv::v3_6_0::Vtr::internal::FVarRefinement *, std::allocator<OpenSubdiv::v3_6_0::Vtr::internal::FVarRefinement *>>::_Vector_impl_data" = type { ptr, ptr, ptr }

; Function Attrs: mustprogress nounwind uwtable
define linkonce_odr void @_ZNSt15__new_allocatorItEC2Ev(ptr noundef nonnull align 1 dereferenceable(1) %0) unnamed_addr #1 comdat align 2 {
  %2 = alloca ptr, align 8
  store ptr %0, ptr %2, align 8
  ret void
}

; Function Attrs: mustprogress nounwind uwtable
define linkonce_odr void @_ZNSt12_Vector_baseItSaItEE17_Vector_impl_dataC2Ev(ptr noundef nonnull align 8 dereferenceable(24) %0) unnamed_addr #1 comdat align 2 {
  %2 = alloca ptr, align 8
  store ptr %0, ptr %2, align 8
  %3 = load ptr, ptr %2, align 8
  %4 = getelementptr inbounds nuw %"struct.std::_Vector_base<unsigned short, std::allocator<unsigned short>>::_Vector_impl_data", ptr %3, i32 0, i32 0
  store ptr null, ptr %4, align 8
  %5 = getelementptr inbounds nuw %"struct.std::_Vector_base<unsigned short, std::allocator<unsigned short>>::_Vector_impl_data", ptr %3, i32 0, i32 1
  store ptr null, ptr %5, align 8
  %6 = getelementptr inbounds nuw %"struct.std::_Vector_base<unsigned short, std::allocator<unsigned short>>::_Vector_impl_data", ptr %3, i32 0, i32 2
  store ptr null, ptr %6, align 8
  ret void
}

; Function Attrs: mustprogress nounwind uwtable
define linkonce_odr void @_ZNSaItEC2Ev(ptr noundef nonnull align 1 dereferenceable(1) %0) unnamed_addr #1 comdat align 2 {
  %2 = alloca ptr, align 8
  store ptr %0, ptr %2, align 8
  %3 = load ptr, ptr %2, align 8
  call void @_ZNSt15__new_allocatorItEC2Ev(ptr noundef nonnull align 1 dereferenceable(1) %3) #10
  ret void
}

; Function Attrs: mustprogress nounwind uwtable
define linkonce_odr void @_ZNSt12_Vector_baseItSaItEE12_Vector_implC2Ev(ptr noundef nonnull align 8 dereferenceable(24) %0) unnamed_addr #1 comdat align 2 {
  %2 = alloca ptr, align 8
  store ptr %0, ptr %2, align 8
  %3 = load ptr, ptr %2, align 8
  call void @_ZNSaItEC2Ev(ptr noundef nonnull align 1 dereferenceable(1) %3) #10
  call void @_ZNSt12_Vector_baseItSaItEE17_Vector_impl_dataC2Ev(ptr noundef nonnull align 8 dereferenceable(24) %3) #10
  ret void
}

; Function Attrs: mustprogress nounwind uwtable
define linkonce_odr void @_ZNSt12_Vector_baseItSaItEEC2Ev(ptr noundef nonnull align 8 dereferenceable(24) %0) unnamed_addr #1 comdat align 2 {
  %2 = alloca ptr, align 8
  store ptr %0, ptr %2, align 8
  %3 = load ptr, ptr %2, align 8
  %4 = getelementptr inbounds nuw %"struct.std::_Vector_base", ptr %3, i32 0, i32 0
  call void @_ZNSt12_Vector_baseItSaItEE12_Vector_implC2Ev(ptr noundef nonnull align 8 dereferenceable(24) %4) #10
  ret void
}

; Function Attrs: mustprogress nounwind uwtable
define linkonce_odr void @_ZNSt6vectorItSaItEEC2Ev(ptr noundef nonnull align 8 dereferenceable(24) %0) unnamed_addr #1 comdat align 2 {
  %2 = alloca ptr, align 8
  store ptr %0, ptr %2, align 8
  %3 = load ptr, ptr %2, align 8
  call void @_ZNSt12_Vector_baseItSaItEEC2Ev(ptr noundef nonnull align 8 dereferenceable(24) %3) #10
  ret void
}

; Function Attrs: mustprogress nounwind uwtable
define linkonce_odr noundef nonnull align 8 dereferenceable(480) ptr @_ZNK10OpenSubdiv6v3_6_03Vtr8internal10Refinement5childEv(ptr noundef nonnull align 8 dereferenceable(504) %0) #1 comdat align 2 {
  %2 = alloca ptr, align 8
  store ptr %0, ptr %2, align 8
  %3 = load ptr, ptr %2, align 8
  %4 = getelementptr inbounds nuw %"class.OpenSubdiv::v3_6_0::Vtr::internal::Refinement", ptr %3, i32 0, i32 2
  %5 = load ptr, ptr %4, align 8
  ret ptr %5
}

; Function Attrs: mustprogress nounwind uwtable
define linkonce_odr noundef nonnull align 8 dereferenceable(480) ptr @_ZNK10OpenSubdiv6v3_6_03Vtr8internal10Refinement6parentEv(ptr noundef nonnull align 8 dereferenceable(504) %0) #1 comdat align 2 {
  %2 = alloca ptr, align 8
  store ptr %0, ptr %2, align 8
  %3 = load ptr, ptr %2, align 8
  %4 = getelementptr inbounds nuw %"class.OpenSubdiv::v3_6_0::Vtr::internal::Refinement", ptr %3, i32 0, i32 1
  %5 = load ptr, ptr %4, align 8
  ret ptr %5
}

; Function Attrs: mustprogress uwtable
define void @_ZN10OpenSubdiv6v3_6_03Vtr8internal14FVarRefinementC2ERKNS2_10RefinementERNS2_9FVarLevelES8_(ptr noundef nonnull align 8 dereferenceable(64) %0, ptr noundef nonnull align 8 dereferenceable(504) %1, ptr noundef nonnull align 8 dereferenceable(216) %2, ptr noundef nonnull align 8 dereferenceable(216) %3) unnamed_addr #0 align 2 {
  %5 = alloca ptr, align 8
  %6 = alloca ptr, align 8
  %7 = alloca ptr, align 8
  %8 = alloca ptr, align 8
  store ptr %0, ptr %5, align 8
  store ptr %1, ptr %6, align 8
  store ptr %2, ptr %7, align 8
  store ptr %3, ptr %8, align 8
  %9 = load ptr, ptr %5, align 8
  %10 = getelementptr inbounds nuw %"class.OpenSubdiv::v3_6_0::Vtr::internal::FVarRefinement", ptr %9, i32 0, i32 0
  %11 = load ptr, ptr %6, align 8
  store ptr %11, ptr %10, align 8
  %12 = getelementptr inbounds nuw %"class.OpenSubdiv::v3_6_0::Vtr::internal::FVarRefinement", ptr %9, i32 0, i32 1
  %13 = load ptr, ptr %6, align 8
  %14 = call noundef nonnull align 8 dereferenceable(480) ptr @_ZNK10OpenSubdiv6v3_6_03Vtr8internal10Refinement6parentEv(ptr noundef nonnull align 8 dereferenceable(504) %13)
  store ptr %14, ptr %12, align 8
  %15 = getelementptr inbounds nuw %"class.OpenSubdiv::v3_6_0::Vtr::internal::FVarRefinement", ptr %9, i32 0, i32 2
  %16 = load ptr, ptr %7, align 8
  store ptr %16, ptr %15, align 8
  %17 = getelementptr inbounds nuw %"class.OpenSubdiv::v3_6_0::Vtr::internal::FVarRefinement", ptr %9, i32 0, i32 3
  %18 = load ptr, ptr %6, align 8
  %19 = call noundef nonnull align 8 dereferenceable(480) ptr @_ZNK10OpenSubdiv6v3_6_03Vtr8internal10Refinement5childEv(ptr noundef nonnull align 8 dereferenceable(504) %18)
  store ptr %19, ptr %17, align 8
  %20 = getelementptr inbounds nuw %"class.OpenSubdiv::v3_6_0::Vtr::internal::FVarRefinement", ptr %9, i32 0, i32 4
  %21 = load ptr, ptr %8, align 8
  store ptr %21, ptr %20, align 8
  %22 = getelementptr inbounds nuw %"class.OpenSubdiv::v3_6_0::Vtr::internal::FVarRefinement", ptr %9, i32 0, i32 5
  call void @_ZNSt6vectorItSaItEEC2Ev(ptr noundef nonnull align 8 dereferenceable(24) %22) #10
  ret void
}